target datalayout = "e-m:e-p270:32:32-p271:32:32-p272:64:64-i64:64-i128:128-f80:128-n8:16:32:64-S128"
target triple = "x86_64-pc-linux-gnu"

%struct.ImGui_ImplGlfw_Data = type { ptr, i32, double, ptr, [9 x ptr], %struct.ImVec2, i8, i8, ptr, ptr, ptr, ptr, ptr, ptr, ptr, ptr }
%struct.ImVec2 = type { float, float }
%struct.ImGuiIO = type { i32, i32, %struct.ImVec2, float, float, ptr, ptr, ptr, ptr, float, i8, ptr, %struct.ImVec2, i8, i8, i8, i8, i8, i8, i8, i8, i8, i8, float, float, float, float, float, float, i8, i8, i8, i8, i8, i8, i8, i8, i8, i8, ptr, ptr, ptr, ptr, ptr, i8, i8, i8, i8, i8, i8, i8, float, i32, i32, i32, i32, %struct.ImVec2, ptr, %struct.ImVec2, [5 x i8], float, float, i32, i8, i8, i8, i8, i32, [154 x %struct.ImGuiKeyData], i8, %struct.ImVec2, [5 x %struct.ImVec2], [5 x double], [5 x i8], [5 x i8], [5 x i16], [5 x i16], [5 x i8], [5 x i8], [5 x i8], i8, i8, [5 x float], [5 x float], [5 x float], float, i8, i8, i8, i8, i16, %struct.ImVector }
%struct.ImGuiKeyData = type { i8, float, float, float }
%struct.ImVector = type { i32, i32, ptr }
%class.anon = type { i8 }
%class.anon.0 = type { i8 }
%struct.ImGuiPlatformIO = type <{ ptr, ptr, ptr, ptr, ptr, ptr, ptr, i16, [6 x i8] }>
%struct.ImGuiViewport = type { i32, i32, %struct.ImVec2, %struct.ImVec2, %struct.ImVec2, %struct.ImVec2, ptr, ptr }

@.str = private unnamed_addr constant [7 x i8] c"1.91.3\00", align 1
@.str.1 = private unnamed_addr constant [16 x i8] c"imgui_impl_glfw\00", align 1

; Function Attrs: mustprogress nounwind uwtable
define linkonce_odr dso_local void @_ZN6ImVec2C2Ev(ptr noundef nonnull align 4 dereferenceable(8) %0) unnamed_addr #0 comdat align 2 {
  %2 = alloca ptr, align 8
  store ptr %0, ptr %2, align 8, !tbaa !48
  %3 = load ptr, ptr %2, align 8
  %4 = getelementptr inbounds nuw %struct.ImVec2, ptr %3, i32 0, i32 0
  store float 0.000000e+00, ptr %4, align 4, !tbaa !50
  %5 = getelementptr inbounds nuw %struct.ImVec2, ptr %3, i32 0, i32 1
  store float 0.000000e+00, ptr %5, align 4, !tbaa !51
  ret void
}

; Function Attrs: inlinehint mustprogress nounwind uwtable
define linkonce_odr dso_local void @_ZdlPv12ImNewWrapperS_(ptr noundef %0, ptr noundef %1) #6 comdat {
  %3 = alloca ptr, align 8
  %4 = alloca ptr, align 8
  store ptr %0, ptr %3, align 8, !tbaa !41
  store ptr %1, ptr %4, align 8, !tbaa !41
  ret void
}

; Function Attrs: inlinehint mustprogress nounwind uwtable
define internal noundef ptr @"_ZZL19ImGui_ImplGlfw_InitP10GLFWwindowb13GlfwClientApiENK3$_1cvPFPKcP12ImGuiContextEEv"(ptr noundef nonnull align 1 dereferenceable(1) %0) #6 align 2 {
  %2 = alloca ptr, align 8
  store ptr %0, ptr %2, align 8, !tbaa !41
  ret ptr @"_ZZL19ImGui_ImplGlfw_InitP10GLFWwindowb13GlfwClientApiEN3$_18__invokeEP12ImGuiContext"
}

; Function Attrs: inlinehint mustprogress nounwind uwtable
define internal noundef ptr @"_ZZL19ImGui_ImplGlfw_InitP10GLFWwindowb13GlfwClientApiENK3$_0cvPFvP12ImGuiContextPKcEEv"(ptr noundef nonnull align 1 dereferenceable(1) %0) #6 align 2 {
  %2 = alloca ptr, align 8
  store ptr %0, ptr %2, align 8, !tbaa !41
  ret ptr @"_ZZL19ImGui_ImplGlfw_InitP10GLFWwindowb13GlfwClientApiEN3$_08__invokeEP12ImGuiContextPKc"
}

; Function Attrs: mustprogress uwtable
define linkonce_odr dso_local void @_ZN19ImGui_ImplGlfw_DataC2Ev(ptr noundef nonnull align 8 dereferenceable(184) %0) unnamed_addr #1 comdat align 2 {
  %2 = alloca ptr, align 8
  store ptr %0, ptr %2, align 8, !tbaa !11
  %3 = load ptr, ptr %2, align 8
  %4 = getelementptr inbounds nuw %struct.ImGui_ImplGlfw_Data, ptr %3, i32 0, i32 5
  call void @_ZN6ImVec2C2Ev(ptr noundef nonnull align 4 dereferenceable(8) %4)
  call void @llvm.memset.p0.i64(ptr align 1 %3, i8 0, i64 184, i1 false)
  ret void
}

; Function Attrs: inlinehint mustprogress nounwind uwtable
define linkonce_odr dso_local noundef ptr @_Znwm12ImNewWrapperPv(i64 noundef %0, ptr noundef %1) #6 comdat {
  %3 = alloca i64, align 8
  %4 = alloca ptr, align 8
  store i64 %0, ptr %3, align 8, !tbaa !86
  store ptr %1, ptr %4, align 8, !tbaa !41
  %5 = load ptr, ptr %4, align 8, !tbaa !41
  ret ptr %5
}

; Function Attrs: mustprogress uwtable
define internal noundef zeroext i1 @_ZL19ImGui_ImplGlfw_InitP10GLFWwindowb13GlfwClientApi(ptr noundef %0, i1 noundef zeroext %1, i32 noundef %2) #1 personality ptr @__gxx_personality_v0 {
  %4 = alloca ptr, align 8
  %5 = alloca i8, align 1
  %6 = alloca i32, align 4
  %7 = alloca ptr, align 8
  %8 = alloca ptr, align 8
  %9 = alloca ptr, align 8
  %10 = alloca i32, align 4
  %11 = alloca ptr, align 8
  %12 = alloca %class.anon, align 1
  %13 = alloca %class.anon.0, align 1
  %14 = alloca ptr, align 8
  %15 = alloca ptr, align 8
  store ptr %0, ptr %4, align 8, !tbaa !8
  %16 = zext i1 %1 to i8
  store i8 %16, ptr %5, align 1, !tbaa !61
  store i32 %2, ptr %6, align 4, !tbaa !62
  call void @llvm.lifetime.start.p0(i64 8, ptr %7) #9
  %17 = call noundef nonnull align 8 dereferenceable(2944) ptr @_ZN5ImGui5GetIOEv()
  store ptr %17, ptr %7, align 8, !tbaa !20
  %18 = call noundef zeroext i1 @_ZN5ImGui30DebugCheckVersionAndDataLayoutEPKcmmmmmm(ptr noundef @.str, i64 noundef 2944, i64 noundef 1156, i64 noundef 8, i64 noundef 16, i64 noundef 20, i64 noundef 2)
  call void @llvm.lifetime.start.p0(i64 8, ptr %8) #9
  %19 = call noundef ptr @_ZN5ImGui8MemAllocEm(i64 noundef 184)
  %20 = call noundef ptr @_Znwm12ImNewWrapperPv(i64 noundef 184, ptr noundef %19)
  invoke void @_ZN19ImGui_ImplGlfw_DataC2Ev(ptr noundef nonnull align 8 dereferenceable(184) %20)
          to label %21 unwind label %91

21:                                               ; preds = %3
  store ptr %20, ptr %8, align 8, !tbaa !11
  %22 = load ptr, ptr %8, align 8, !tbaa !11
  %23 = load ptr, ptr %7, align 8, !tbaa !20
  %24 = getelementptr inbounds nuw %struct.ImGuiIO, ptr %23, i32 0, i32 41
  store ptr %22, ptr %24, align 8, !tbaa !22
  %25 = load ptr, ptr %7, align 8, !tbaa !20
  %26 = getelementptr inbounds nuw %struct.ImGuiIO, ptr %25, i32 0, i32 39
  store ptr @.str.1, ptr %26, align 8, !tbaa !63
  %27 = load ptr, ptr %7, align 8, !tbaa !20
  %28 = getelementptr inbounds nuw %struct.ImGuiIO, ptr %27, i32 0, i32 1
  %29 = load i32, ptr %28, align 4, !tbaa !64
  %30 = or i32 %29, 2
  store i32 %30, ptr %28, align 4, !tbaa !64
  %31 = load ptr, ptr %7, align 8, !tbaa !20
  %32 = getelementptr inbounds nuw %struct.ImGuiIO, ptr %31, i32 0, i32 1
  %33 = load i32, ptr %32, align 4, !tbaa !64
  %34 = or i32 %33, 4
  store i32 %34, ptr %32, align 4, !tbaa !64
  %35 = load ptr, ptr %4, align 8, !tbaa !8
  %36 = load ptr, ptr %8, align 8, !tbaa !11
  %37 = getelementptr inbounds nuw %struct.ImGui_ImplGlfw_Data, ptr %36, i32 0, i32 0
  store ptr %35, ptr %37, align 8, !tbaa !35
  %38 = load ptr, ptr %8, align 8, !tbaa !11
  %39 = getelementptr inbounds nuw %struct.ImGui_ImplGlfw_Data, ptr %38, i32 0, i32 2
  store double 0.000000e+00, ptr %39, align 8, !tbaa !65
  call void @llvm.lifetime.start.p0(i64 8, ptr %11) #9
  %40 = call noundef nonnull align 8 dereferenceable(58) ptr @_ZN5ImGui13GetPlatformIOEv()
  store ptr %40, ptr %11, align 8, !tbaa !66
  call void @llvm.lifetime.start.p0(i64 1, ptr %12) #9
  %41 = call noundef ptr @"_ZZL19ImGui_ImplGlfw_InitP10GLFWwindowb13GlfwClientApiENK3$_0cvPFvP12ImGuiContextPKcEEv"(ptr noundef nonnull align 1 dereferenceable(1) %12) #9
  %42 = load ptr, ptr %11, align 8, !tbaa !66
  %43 = getelementptr inbounds nuw %struct.ImGuiPlatformIO, ptr %42, i32 0, i32 1
  store ptr %41, ptr %43, align 8, !tbaa !68
  call void @llvm.lifetime.end.p0(i64 1, ptr %12) #9
  call void @llvm.lifetime.start.p0(i64 1, ptr %13) #9
  %44 = call noundef ptr @"_ZZL19ImGui_ImplGlfw_InitP10GLFWwindowb13GlfwClientApiENK3$_1cvPFPKcP12ImGuiContextEEv"(ptr noundef nonnull align 1 dereferenceable(1) %13) #9
  %45 = load ptr, ptr %11, align 8, !tbaa !66
  %46 = getelementptr inbounds nuw %struct.ImGuiPlatformIO, ptr %45, i32 0, i32 0
  store ptr %44, ptr %46, align 8, !tbaa !70
  call void @llvm.lifetime.end.p0(i64 1, ptr %13) #9
  call void @llvm.lifetime.start.p0(i64 8, ptr %14) #9
  %47 = call ptr @glfwSetErrorCallback(ptr noundef null)
  store ptr %47, ptr %14, align 8, !tbaa !41
  %48 = call ptr @glfwCreateStandardCursor(i32 noundef 221185)
  %49 = load ptr, ptr %8, align 8, !tbaa !11
  %50 = getelementptr inbounds nuw %struct.ImGui_ImplGlfw_Data, ptr %49, i32 0, i32 4
  %51 = getelementptr inbounds [9 x ptr], ptr %50, i64 0, i64 0
  store ptr %48, ptr %51, align 8, !tbaa !71
  %52 = call ptr @glfwCreateStandardCursor(i32 noundef 221186)
  %53 = load ptr, ptr %8, align 8, !tbaa !11
  %54 = getelementptr inbounds nuw %struct.ImGui_ImplGlfw_Data, ptr %53, i32 0, i32 4
  %55 = getelementptr inbounds [9 x ptr], ptr %54, i64 0, i64 1
  store ptr %52, ptr %55, align 8, !tbaa !71
  %56 = call ptr @glfwCreateStandardCursor(i32 noundef 221190)
  %57 = load ptr, ptr %8, align 8, !tbaa !11
  %58 = getelementptr inbounds nuw %struct.ImGui_ImplGlfw_Data, ptr %57, i32 0, i32 4
  %59 = getelementptr inbounds [9 x ptr], ptr %58, i64 0, i64 3
  store ptr %56, ptr %59, align 8, !tbaa !71
  %60 = call ptr @glfwCreateStandardCursor(i32 noundef 221189)
  %61 = load ptr, ptr %8, align 8, !tbaa !11
  %62 = getelementptr inbounds nuw %struct.ImGui_ImplGlfw_Data, ptr %61, i32 0, i32 4
  %63 = getelementptr inbounds [9 x ptr], ptr %62, i64 0, i64 4
  store ptr %60, ptr %63, align 8, !tbaa !71
  %64 = call ptr @glfwCreateStandardCursor(i32 noundef 221188)
  %65 = load ptr, ptr %8, align 8, !tbaa !11
  %66 = getelementptr inbounds nuw %struct.ImGui_ImplGlfw_Data, ptr %65, i32 0, i32 4
  %67 = getelementptr inbounds [9 x ptr], ptr %66, i64 0, i64 7
  store ptr %64, ptr %67, align 8, !tbaa !71
  %68 = call ptr @glfwCreateStandardCursor(i32 noundef 221193)
  %69 = load ptr, ptr %8, align 8, !tbaa !11
  %70 = getelementptr inbounds nuw %struct.ImGui_ImplGlfw_Data, ptr %69, i32 0, i32 4
  %71 = getelementptr inbounds [9 x ptr], ptr %70, i64 0, i64 2
  store ptr %68, ptr %71, align 8, !tbaa !71
  %72 = call ptr @glfwCreateStandardCursor(i32 noundef 221192)
  %73 = load ptr, ptr %8, align 8, !tbaa !11
  %74 = getelementptr inbounds nuw %struct.ImGui_ImplGlfw_Data, ptr %73, i32 0, i32 4
  %75 = getelementptr inbounds [9 x ptr], ptr %74, i64 0, i64 5
  store ptr %72, ptr %75, align 8, !tbaa !71
  %76 = call ptr @glfwCreateStandardCursor(i32 noundef 221191)
  %77 = load ptr, ptr %8, align 8, !tbaa !11
  %78 = getelementptr inbounds nuw %struct.ImGui_ImplGlfw_Data, ptr %77, i32 0, i32 4
  %79 = getelementptr inbounds [9 x ptr], ptr %78, i64 0, i64 6
  store ptr %76, ptr %79, align 8, !tbaa !71
  %80 = call ptr @glfwCreateStandardCursor(i32 noundef 221194)
  %81 = load ptr, ptr %8, align 8, !tbaa !11
  %82 = getelementptr inbounds nuw %struct.ImGui_ImplGlfw_Data, ptr %81, i32 0, i32 4
  %83 = getelementptr inbounds [9 x ptr], ptr %82, i64 0, i64 8
  store ptr %80, ptr %83, align 8, !tbaa !71
  %84 = load ptr, ptr %14, align 8, !tbaa !41
  %85 = call ptr @glfwSetErrorCallback(ptr noundef %84)
  %86 = call i32 @glfwGetError(ptr noundef null)
  %87 = load i8, ptr %5, align 1, !tbaa !61, !range !33, !noundef !34
  %88 = trunc i8 %87 to i1
  br i1 %88, label %89, label %95

89:                                               ; preds = %21
  %90 = load ptr, ptr %4, align 8, !tbaa !8
  call void @_Z31ImGui_ImplGlfw_InstallCallbacksP10GLFWwindow(ptr noundef %90)
  br label %95

91:                                               ; preds = %3
  %92 = landingpad { ptr, i32 }
          cleanup
  %93 = extractvalue { ptr, i32 } %92, 0
  store ptr %93, ptr %9, align 8
  %94 = extractvalue { ptr, i32 } %92, 1
  store i32 %94, ptr %10, align 4
  call void @_ZdlPv12ImNewWrapperS_(ptr noundef %20, ptr noundef %19) #9
  call void @llvm.lifetime.end.p0(i64 8, ptr %8) #9
  call void @llvm.lifetime.end.p0(i64 8, ptr %7) #9
  br label %105

95:                                               ; preds = %89, %21
  call void @llvm.lifetime.start.p0(i64 8, ptr %15) #9
  %96 = call noundef ptr @_ZN5ImGui15GetMainViewportEv()
  store ptr %96, ptr %15, align 8, !tbaa !73
  %97 = load ptr, ptr %8, align 8, !tbaa !11
  %98 = getelementptr inbounds nuw %struct.ImGui_ImplGlfw_Data, ptr %97, i32 0, i32 0
  %99 = load ptr, ptr %98, align 8, !tbaa !35
  %100 = load ptr, ptr %15, align 8, !tbaa !73
  %101 = getelementptr inbounds nuw %struct.ImGuiViewport, ptr %100, i32 0, i32 6
  store ptr %99, ptr %101, align 8, !tbaa !75
  %102 = load i32, ptr %6, align 4, !tbaa !62
  %103 = load ptr, ptr %8, align 8, !tbaa !11
  %104 = getelementptr inbounds nuw %struct.ImGui_ImplGlfw_Data, ptr %103, i32 0, i32 1
  store i32 %102, ptr %104, align 8, !tbaa !77
  call void @llvm.lifetime.end.p0(i64 8, ptr %15) #9
  call void @llvm.lifetime.end.p0(i64 8, ptr %14) #9
  call void @llvm.lifetime.end.p0(i64 8, ptr %11) #9
  call void @llvm.lifetime.end.p0(i64 8, ptr %8) #9
  call void @llvm.lifetime.end.p0(i64 8, ptr %7) #9
  ret i1 true

105:                                              ; preds = %91
  %106 = load ptr, ptr %9, align 8
  %107 = load i32, ptr %10, align 4
  %108 = insertvalue { ptr, i32 } poison, ptr %106, 0
  %109 = insertvalue { ptr, i32 } %108, i32 %107, 1
  resume { ptr, i32 } %109
}