; Function Attrs: mustprogress uwtable
define internal fastcc void @_ZL19ImGui_ImplGlfw_InitP10GLFWwindowb13GlfwClientApi(ptr noundef %0, i1 noundef zeroext %1, i32 noundef range(i32 0, 3) %2) unnamed_addr #1 personality ptr @__gxx_personality_v0 {
  %4 = tail call noundef nonnull align 8 dereferenceable(2944) ptr @_ZN5ImGui5GetIOEv()
  %5 = tail call noundef zeroext i1 @_ZN5ImGui30DebugCheckVersionAndDataLayoutEPKcmmmmmm(ptr noundef nonnull @.str, i64 noundef 2944, i64 noundef 1156, i64 noundef 8, i64 noundef 16, i64 noundef 20, i64 noundef 2)
  %6 = tail call noundef ptr @_ZN5ImGui8MemAllocEm(i64 noundef 184)
  tail call void @llvm.memset.p0.i64(ptr noundef nonnull align 8 dereferenceable(184) %6, i8 0, i64 184, i1 false)
  %7 = getelementptr inbounds nuw i8, ptr %4, i64 144
  store ptr %6, ptr %7, align 8, !tbaa !4
  %8 = getelementptr inbounds nuw i8, ptr %4, i64 128
  store ptr @.str.1, ptr %8, align 8, !tbaa !43
  %9 = getelementptr inbounds nuw i8, ptr %4, i64 4
  %10 = load i32, ptr %9, align 4, !tbaa !44
  %11 = or i32 %10, 6
  store i32 %11, ptr %9, align 4, !tbaa !44
  store ptr %0, ptr %6, align 8, !tbaa !29
  %12 = tail call noundef nonnull align 8 dereferenceable(58) ptr @_ZN5ImGui13GetPlatformIOEv()
  %13 = getelementptr inbounds nuw i8, ptr %12, i64 8
  store ptr @"_ZZL19ImGui_ImplGlfw_InitP10GLFWwindowb13GlfwClientApiEN3$_08__invokeEP12ImGuiContextPKc", ptr %13, align 8, !tbaa !45
  store ptr @"_ZZL19ImGui_ImplGlfw_InitP10GLFWwindowb13GlfwClientApiEN3$_18__invokeEP12ImGuiContext", ptr %12, align 8, !tbaa !47
  %14 = tail call ptr @glfwSetErrorCallback(ptr noundef null)
  %15 = tail call ptr @glfwCreateStandardCursor(i32 noundef 221185)
  %16 = getelementptr inbounds nuw i8, ptr %6, i64 32
  store ptr %15, ptr %16, align 8, !tbaa !48
  %17 = tail call ptr @glfwCreateStandardCursor(i32 noundef 221186)
  %18 = getelementptr inbounds nuw i8, ptr %6, i64 40
  store ptr %17, ptr %18, align 8, !tbaa !48
  %19 = tail call ptr @glfwCreateStandardCursor(i32 noundef 221190)
  %20 = getelementptr inbounds nuw i8, ptr %6, i64 56
  store ptr %19, ptr %20, align 8, !tbaa !48
  %21 = tail call ptr @glfwCreateStandardCursor(i32 noundef 221189)
  %22 = getelementptr inbounds nuw i8, ptr %6, i64 64
  store ptr %21, ptr %22, align 8, !tbaa !48
  %23 = tail call ptr @glfwCreateStandardCursor(i32 noundef 221188)
  %24 = getelementptr inbounds nuw i8, ptr %6, i64 88
  store ptr %23, ptr %24, align 8, !tbaa !48
  %25 = tail call ptr @glfwCreateStandardCursor(i32 noundef 221193)
  %26 = getelementptr inbounds nuw i8, ptr %6, i64 48
  store ptr %25, ptr %26, align 8, !tbaa !48
  %27 = tail call ptr @glfwCreateStandardCursor(i32 noundef 221192)
  %28 = getelementptr inbounds nuw i8, ptr %6, i64 72
  store ptr %27, ptr %28, align 8, !tbaa !48
  %29 = tail call ptr @glfwCreateStandardCursor(i32 noundef 221191)
  %30 = getelementptr inbounds nuw i8, ptr %6, i64 80
  store ptr %29, ptr %30, align 8, !tbaa !48
  %31 = tail call ptr @glfwCreateStandardCursor(i32 noundef 221194)
  %32 = getelementptr inbounds nuw i8, ptr %6, i64 96
  store ptr %31, ptr %32, align 8, !tbaa !48
  %33 = tail call ptr @glfwSetErrorCallback(ptr noundef %14)
  %34 = tail call i32 @glfwGetError(ptr noundef null)
  br i1 %1, label %35, label %36

35:                                               ; preds = %3
  tail call void @_Z31ImGui_ImplGlfw_InstallCallbacksP10GLFWwindow(ptr noundef %0)
  br label %36

36:                                               ; preds = %35, %3
  %37 = tail call noundef ptr @_ZN5ImGui15GetMainViewportEv()
  %38 = load ptr, ptr %6, align 8, !tbaa !29
  %39 = getelementptr inbounds nuw i8, ptr %37, i64 40
  store ptr %38, ptr %39, align 8, !tbaa !50
  %40 = getelementptr inbounds nuw i8, ptr %6, i64 8
  store i32 %2, ptr %40, align 8, !tbaa !52
  ret void
}